; Function Attrs: nofree norecurse nosync nounwind memory(argmem: readwrite) uwtable
define hidden void @aom_convolve8_c(ptr nocapture noundef readonly %0, i64 noundef %1, ptr nocapture noundef writeonly %2, i64 noundef %3, ptr nocapture noundef readonly %4, i32 noundef %5, i32 noundef %6, i32 noundef %7, i32 noundef %8, i32 noundef %9, i32 noundef %10) local_unnamed_addr #1 {
  %12 = alloca [8640 x i8], align 16
  %13 = add nsw i32 %10, -1
  %14 = mul nsw i32 %13, %8
  %15 = add nsw i32 %14, %7
  %16 = ashr i32 %15, 4
  %17 = icmp sgt i32 %16, -8
  %18 = icmp sgt i32 %9, 0
  %or.cond.i = and i1 %18, %17
  br i1 %or.cond.i, label %.preheader.us.preheader.i, label %convolve_horiz.exit

.preheader.us.preheader.i:                        ; preds = %11
  %.neg = mul i64 %1, -3
  %19 = getelementptr inbounds i8, ptr %0, i64 %.neg
  %20 = getelementptr inbounds i8, ptr %19, i64 -3
  %wide.trip.count.i = zext nneg i32 %9 to i64
  %21 = add nsw i32 %16, 7
  br label %.preheader.us.i

.preheader.us.i:                                  ; preds = %._crit_edge.us.i, %.preheader.us.preheader.i
  %.030.us.i = phi ptr [ %45, %._crit_edge.us.i ], [ %20, %.preheader.us.preheader.i ]
  %.02229.us.i = phi ptr [ %46, %._crit_edge.us.i ], [ %12, %.preheader.us.preheader.i ]
  %.02328.us.i = phi i32 [ %47, %._crit_edge.us.i ], [ 0, %.preheader.us.preheader.i ]
  br label %22

22:                                               ; preds = %horz_scalar_product.exit.us.i, %.preheader.us.i
  %indvars.iv.i = phi i64 [ 0, %.preheader.us.i ], [ %indvars.iv.next.i, %horz_scalar_product.exit.us.i ]
  %.02526.us.i = phi i32 [ %5, %.preheader.us.i ], [ %44, %horz_scalar_product.exit.us.i ]
  %23 = ashr i32 %.02526.us.i, 4
  %24 = sext i32 %23 to i64
  %25 = getelementptr inbounds i8, ptr %.030.us.i, i64 %24
  %26 = and i32 %.02526.us.i, 15
  %27 = zext nneg i32 %26 to i64
  %28 = getelementptr inbounds [8 x i16], ptr %4, i64 %27
  br label %29

29:                                               ; preds = %29, %22
  %indvars.iv.i.us.i = phi i64 [ 0, %22 ], [ %indvars.iv.next.i.us.i, %29 ]
  %.078.i.us.i = phi i32 [ 0, %22 ], [ %37, %29 ]
  %30 = getelementptr inbounds i8, ptr %25, i64 %indvars.iv.i.us.i
  %31 = load i8, ptr %30, align 1
  %32 = zext i8 %31 to i32
  %33 = getelementptr inbounds i16, ptr %28, i64 %indvars.iv.i.us.i
  %34 = load i16, ptr %33, align 2
  %35 = sext i16 %34 to i32
  %36 = mul nsw i32 %35, %32
  %37 = add nsw i32 %36, %.078.i.us.i
  %indvars.iv.next.i.us.i = add nuw nsw i64 %indvars.iv.i.us.i, 1
  %exitcond.not.i.us.i = icmp eq i64 %indvars.iv.next.i.us.i, 8
  br i1 %exitcond.not.i.us.i, label %horz_scalar_product.exit.us.i, label %29, !llvm.loop !4

horz_scalar_product.exit.us.i:                    ; preds = %29
  %38 = add nsw i32 %37, 64
  %39 = ashr i32 %38, 7
  %40 = tail call i32 @llvm.smax.i32(i32 %39, i32 0)
  %41 = tail call i32 @llvm.umin.i32(i32 %40, i32 255)
  %42 = trunc nuw i32 %41 to i8
  %43 = getelementptr inbounds i8, ptr %.02229.us.i, i64 %indvars.iv.i
  store i8 %42, ptr %43, align 1
  %44 = add nsw i32 %.02526.us.i, %6
  %indvars.iv.next.i = add nuw nsw i64 %indvars.iv.i, 1
  %exitcond.not.i = icmp eq i64 %indvars.iv.next.i, %wide.trip.count.i
  br i1 %exitcond.not.i, label %._crit_edge.us.i, label %22, !llvm.loop !6

._crit_edge.us.i:                                 ; preds = %horz_scalar_product.exit.us.i
  %45 = getelementptr inbounds i8, ptr %.030.us.i, i64 %1
  %46 = getelementptr inbounds i8, ptr %.02229.us.i, i64 64
  %47 = add nuw nsw i32 %.02328.us.i, 1
  %exitcond34.not.i = icmp eq i32 %.02328.us.i, %21
  br i1 %exitcond34.not.i, label %convolve_horiz.exit, label %.preheader.us.i, !llvm.loop !7

convolve_horiz.exit:                              ; preds = %._crit_edge.us.i, %11
  %48 = icmp sgt i32 %10, 0
  %or.cond.i17 = and i1 %18, %48
  br i1 %or.cond.i17, label %.preheader.us.preheader.i18, label %convolve_vert.exit

.preheader.us.preheader.i18:                      ; preds = %convolve_horiz.exit
  %wide.trip.count.i19 = zext nneg i32 %10 to i64
  br label %.preheader.us.i20

.preheader.us.i20:                                ; preds = %._crit_edge.us.i27, %.preheader.us.preheader.i18
  %.032.us.i = phi ptr [ %75, %._crit_edge.us.i27 ], [ %12, %.preheader.us.preheader.i18 ]
  %.02431.us.i = phi ptr [ %76, %._crit_edge.us.i27 ], [ %2, %.preheader.us.preheader.i18 ]
  %.02530.us.i = phi i32 [ %77, %._crit_edge.us.i27 ], [ 0, %.preheader.us.preheader.i18 ]
  br label %49

49:                                               ; preds = %vert_scalar_product.exit.us.i, %.preheader.us.i20
  %indvars.iv.i21 = phi i64 [ 0, %.preheader.us.i20 ], [ %indvars.iv.next.i25, %vert_scalar_product.exit.us.i ]
  %.02728.us.i = phi i32 [ %7, %.preheader.us.i20 ], [ %74, %vert_scalar_product.exit.us.i ]
  %50 = ashr i32 %.02728.us.i, 4
  %51 = sext i32 %50 to i64
  %52 = shl nsw i64 %51, 6
  %53 = getelementptr inbounds i8, ptr %.032.us.i, i64 %52
  %54 = and i32 %.02728.us.i, 15
  %55 = zext nneg i32 %54 to i64
  %56 = getelementptr inbounds [8 x i16], ptr %4, i64 %55
  br label %57

57:                                               ; preds = %57, %49
  %indvars.iv.i.us.i22 = phi i64 [ 0, %49 ], [ %indvars.iv.next.i.us.i23, %57 ]
  %.089.i.us.i = phi i32 [ 0, %49 ], [ %66, %57 ]
  %58 = shl nsw i64 %indvars.iv.i.us.i22, 6
  %59 = getelementptr inbounds i8, ptr %53, i64 %58
  %60 = load i8, ptr %59, align 1
  %61 = zext i8 %60 to i32
  %62 = getelementptr inbounds i16, ptr %56, i64 %indvars.iv.i.us.i22
  %63 = load i16, ptr %62, align 2
  %64 = sext i16 %63 to i32
  %65 = mul nsw i32 %64, %61
  %66 = add nsw i32 %65, %.089.i.us.i
  %indvars.iv.next.i.us.i23 = add nuw nsw i64 %indvars.iv.i.us.i22, 1
  %exitcond.not.i.us.i24 = icmp eq i64 %indvars.iv.next.i.us.i23, 8
  br i1 %exitcond.not.i.us.i24, label %vert_scalar_product.exit.us.i, label %57, !llvm.loop !8

vert_scalar_product.exit.us.i:                    ; preds = %57
  %67 = add nsw i32 %66, 64
  %68 = ashr i32 %67, 7
  %69 = tail call i32 @llvm.smax.i32(i32 %68, i32 0)
  %70 = tail call i32 @llvm.umin.i32(i32 %69, i32 255)
  %71 = trunc nuw i32 %70 to i8
  %72 = mul nsw i64 %indvars.iv.i21, %3
  %73 = getelementptr inbounds i8, ptr %.02431.us.i, i64 %72
  store i8 %71, ptr %73, align 1
  %74 = add nsw i32 %.02728.us.i, %8
  %indvars.iv.next.i25 = add nuw nsw i64 %indvars.iv.i21, 1
  %exitcond.not.i26 = icmp eq i64 %indvars.iv.next.i25, %wide.trip.count.i19
  br i1 %exitcond.not.i26, label %._crit_edge.us.i27, label %49, !llvm.loop !9

._crit_edge.us.i27:                               ; preds = %vert_scalar_product.exit.us.i
  %75 = getelementptr inbounds i8, ptr %.032.us.i, i64 1
  %76 = getelementptr inbounds i8, ptr %.02431.us.i, i64 1
  %77 = add nuw nsw i32 %.02530.us.i, 1
  %exitcond36.not.i = icmp eq i32 %77, %9
  br i1 %exitcond36.not.i, label %convolve_vert.exit, label %.preheader.us.i20, !llvm.loop !10

convolve_vert.exit:                               ; preds = %._crit_edge.us.i27, %convolve_horiz.exit
  ret void
}